; ModuleID = '25/1324.cpp'
source_filename = "25/1324.cpp"
target datalayout = "e-m:e-p270:32:32-p271:32:32-p272:64:64-i64:64-f80:128-n8:16:32:64-S128"
target triple = "x86_64-pc-linux-gnu"

%"class.std::ios_base::Init" = type { i8 }
%"class.std::basic_istream" = type { i32 (...)**, i64, %"class.std::basic_ios" }
%"class.std::basic_ios" = type { %"class.std::ios_base", %"class.std::basic_ostream"*, i8, i8, %"class.std::basic_streambuf"*, %"class.std::ctype"*, %"class.std::num_put"*, %"class.std::num_get"* }
%"class.std::ios_base" = type { i32 (...)**, i64, i64, i32, i32, i32, %"struct.std::ios_base::_Callback_list"*, %"struct.std::ios_base::_Words", [8 x %"struct.std::ios_base::_Words"], i32, %"struct.std::ios_base::_Words"*, %"class.std::locale" }
%"struct.std::ios_base::_Callback_list" = type { %"struct.std::ios_base::_Callback_list"*, void (i32, %"class.std::ios_base"*, i32)*, i32, i32 }
%"struct.std::ios_base::_Words" = type { i8*, i64 }
%"class.std::locale" = type { %"class.std::locale::_Impl"* }
%"class.std::locale::_Impl" = type { i32, %"class.std::locale::facet"**, i64, %"class.std::locale::facet"**, i8** }
%"class.std::locale::facet" = type <{ i32 (...)**, i32, [4 x i8] }>
%"class.std::basic_ostream" = type { i32 (...)**, %"class.std::basic_ios" }
%"class.std::basic_streambuf" = type { i32 (...)**, i8*, i8*, i8*, i8*, i8*, i8*, %"class.std::locale" }
%"class.std::ctype" = type <{ %"class.std::locale::facet.base", [4 x i8], %struct.__locale_struct*, i8, [7 x i8], i32*, i32*, i16*, i8, [256 x i8], [256 x i8], i8, [6 x i8] }>
%"class.std::locale::facet.base" = type <{ i32 (...)**, i32 }>
%struct.__locale_struct = type { [13 x %struct.__locale_data*], i16*, i32*, i32*, [13 x i8*] }
%struct.__locale_data = type opaque
%"class.std::num_put" = type { %"class.std::locale::facet.base", [4 x i8] }
%"class.std::num_get" = type { %"class.std::locale::facet.base", [4 x i8] }

@_ZStL8__ioinit = internal global %"class.std::ios_base::Init" zeroinitializer, align 1
@__dso_handle = external hidden global i8
@_ZSt3cin = external dso_local global %"class.std::basic_istream", align 8
@_ZSt4cout = external dso_local global %"class.std::basic_ostream", align 8
@llvm.global_ctors = appending global [1 x { i32, void ()*, i8* }] [{ i32, void ()*, i8* } { i32 65535, void ()* @_GLOBAL__sub_I_1324.cpp, i8* null }]

; Function Attrs: noinline uwtable
define internal void @__cxx_global_var_init() #0 section ".text.startup" {
  call void @_ZNSt8ios_base4InitC1Ev(%"class.std::ios_base::Init"* @_ZStL8__ioinit)
  %1 = call i32 @__cxa_atexit(void (i8*)* bitcast (void (%"class.std::ios_base::Init"*)* @_ZNSt8ios_base4InitD1Ev to void (i8*)*), i8* getelementptr inbounds (%"class.std::ios_base::Init", %"class.std::ios_base::Init"* @_ZStL8__ioinit, i32 0, i32 0), i8* @__dso_handle) #3
  ret void
}

declare dso_local void @_ZNSt8ios_base4InitC1Ev(%"class.std::ios_base::Init"*) unnamed_addr #1

; Function Attrs: nounwind
declare dso_local void @_ZNSt8ios_base4InitD1Ev(%"class.std::ios_base::Init"*) unnamed_addr #2

; Function Attrs: nounwind
declare dso_local i32 @__cxa_atexit(void (i8*)*, i8*, i8*) #3

; Function Attrs: noinline norecurse uwtable
define dso_local i32 @main() #4 {
  %1 = alloca i32, align 4
  %2 = alloca i32, align 4
  %3 = alloca i32, align 4
  %4 = alloca i32, align 4
  %5 = alloca i32, align 4
  %6 = alloca i32, align 4
  %7 = alloca i32, align 4
  %8 = alloca [200 x i32], align 16
  store i32 0, i32* %1, align 4
  store i32 200, i32* %7, align 4
  %9 = getelementptr inbounds [200 x i32], [200 x i32]* %8, i64 0, i64 0
  %10 = bitcast i32* %9 to i8*
  call void @llvm.memset.p0i8.i64(i8* align 16 %10, i8 0, i64 800, i1 false)
  %11 = getelementptr inbounds [200 x i32], [200 x i32]* %8, i64 0, i64 0
  store i32 2, i32* %11, align 16
  store i32 1, i32* %5, align 4
  %12 = call dereferenceable(280) %"class.std::basic_istream"* @_ZNSirsERi(%"class.std::basic_istream"* @_ZSt3cin, i32* dereferenceable(4) %2)
  %13 = load i32, i32* %2, align 4
  %14 = icmp eq i32 %13, 0
  br i1 %14, label %15, label %18

15:                                               ; preds = %0
  %16 = call dereferenceable(272) %"class.std::basic_ostream"* @_ZNSolsEi(%"class.std::basic_ostream"* @_ZSt4cout, i32 1)
  %17 = call dereferenceable(272) %"class.std::basic_ostream"* @_ZNSolsEPFRSoS_E(%"class.std::basic_ostream"* %16, %"class.std::basic_ostream"* (%"class.std::basic_ostream"*)* @_ZSt4endlIcSt11char_traitsIcEERSt13basic_ostreamIT_T0_ES6_)
  br label %92

18:                                               ; preds = %0
  store i32 2, i32* %3, align 4
  br label %19

19:                                               ; preds = %63, %18
  %20 = load i32, i32* %3, align 4
  %21 = load i32, i32* %2, align 4
  %22 = icmp sle i32 %20, %21
  br i1 %22, label %23, label %66

23:                                               ; preds = %19
  store i32 0, i32* %6, align 4
  store i32 0, i32* %4, align 4
  br label %24

24:                                               ; preds = %49, %23
  %25 = load i32, i32* %4, align 4
  %26 = load i32, i32* %5, align 4
  %27 = icmp slt i32 %25, %26
  br i1 %27, label %28, label %52

28:                                               ; preds = %24
  %29 = load i32, i32* %4, align 4
  %30 = sext i32 %29 to i64
  %31 = getelementptr inbounds [200 x i32], [200 x i32]* %8, i64 0, i64 %30
  %32 = load i32, i32* %31, align 4
  %33 = mul i32 2, %32
  %34 = load i32, i32* %6, align 4
  %35 = add i32 %33, %34
  %36 = load i32, i32* %4, align 4
  %37 = sext i32 %36 to i64
  %38 = getelementptr inbounds [200 x i32], [200 x i32]* %8, i64 0, i64 %37
  store i32 %35, i32* %38, align 4
  %39 = load i32, i32* %4, align 4
  %40 = sext i32 %39 to i64
  %41 = getelementptr inbounds [200 x i32], [200 x i32]* %8, i64 0, i64 %40
  %42 = load i32, i32* %41, align 4
  %43 = udiv i32 %42, 10
  store i32 %43, i32* %6, align 4
  %44 = load i32, i32* %4, align 4
  %45 = sext i32 %44 to i64
  %46 = getelementptr inbounds [200 x i32], [200 x i32]* %8, i64 0, i64 %45
  %47 = load i32, i32* %46, align 4
  %48 = urem i32 %47, 10
  store i32 %48, i32* %46, align 4
  br label %49

49:                                               ; preds = %28
  %50 = load i32, i32* %4, align 4
  %51 = add nsw i32 %50, 1
  store i32 %51, i32* %4, align 4
  br label %24

52:                                               ; preds = %24
  %53 = load i32, i32* %6, align 4
  %54 = icmp sgt i32 %53, 0
  br i1 %54, label %55, label %62

55:                                               ; preds = %52
  %56 = load i32, i32* %6, align 4
  %57 = load i32, i32* %5, align 4
  %58 = sext i32 %57 to i64
  %59 = getelementptr inbounds [200 x i32], [200 x i32]* %8, i64 0, i64 %58
  store i32 %56, i32* %59, align 4
  %60 = load i32, i32* %5, align 4
  %61 = add nsw i32 %60, 1
  store i32 %61, i32* %5, align 4
  br label %62

62:                                               ; preds = %55, %52
  br label %63

63:                                               ; preds = %62
  %64 = load i32, i32* %3, align 4
  %65 = add nsw i32 %64, 1
  store i32 %65, i32* %3, align 4
  br label %19

66:                                               ; preds = %19
  %67 = load i32, i32* %5, align 4
  store i32 %67, i32* %4, align 4
  br label %68

68:                                               ; preds = %74, %66
  %69 = load i32, i32* %4, align 4
  %70 = sext i32 %69 to i64
  %71 = getelementptr inbounds [200 x i32], [200 x i32]* %8, i64 0, i64 %70
  %72 = load i32, i32* %71, align 4
  %73 = icmp eq i32 %72, 0
  br i1 %73, label %74, label %77

74:                                               ; preds = %68
  %75 = load i32, i32* %4, align 4
  %76 = add nsw i32 %75, -1
  store i32 %76, i32* %4, align 4
  br label %68

77:                                               ; preds = %68
  br label %78

78:                                               ; preds = %87, %77
  %79 = load i32, i32* %4, align 4
  %80 = icmp sge i32 %79, 0
  br i1 %80, label %81, label %90

81:                                               ; preds = %78
  %82 = load i32, i32* %4, align 4
  %83 = sext i32 %82 to i64
  %84 = getelementptr inbounds [200 x i32], [200 x i32]* %8, i64 0, i64 %83
  %85 = load i32, i32* %84, align 4
  %86 = call dereferenceable(272) %"class.std::basic_ostream"* @_ZNSolsEj(%"class.std::basic_ostream"* @_ZSt4cout, i32 %85)
  br label %87

87:                                               ; preds = %81
  %88 = load i32, i32* %4, align 4
  %89 = add nsw i32 %88, -1
  store i32 %89, i32* %4, align 4
  br label %78

90:                                               ; preds = %78
  %91 = call dereferenceable(272) %"class.std::basic_ostream"* @_ZNSolsEPFRSoS_E(%"class.std::basic_ostream"* @_ZSt4cout, %"class.std::basic_ostream"* (%"class.std::basic_ostream"*)* @_ZSt4endlIcSt11char_traitsIcEERSt13basic_ostreamIT_T0_ES6_)
  br label %92

92:                                               ; preds = %90, %15
  ret i32 0
}

; Function Attrs: argmemonly nounwind willreturn
declare void @llvm.memset.p0i8.i64(i8* nocapture writeonly, i8, i64, i1 immarg) #5

declare dso_local dereferenceable(280) %"class.std::basic_istream"* @_ZNSirsERi(%"class.std::basic_istream"*, i32* dereferenceable(4)) #1

declare dso_local dereferenceable(272) %"class.std::basic_ostream"* @_ZNSolsEi(%"class.std::basic_ostream"*, i32) #1

declare dso_local dereferenceable(272) %"class.std::basic_ostream"* @_ZNSolsEPFRSoS_E(%"class.std::basic_ostream"*, %"class.std::basic_ostream"* (%"class.std::basic_ostream"*)*) #1

declare dso_local dereferenceable(272) %"class.std::basic_ostream"* @_ZSt4endlIcSt11char_traitsIcEERSt13basic_ostreamIT_T0_ES6_(%"class.std::basic_ostream"* dereferenceable(272)) #1

declare dso_local dereferenceable(272) %"class.std::basic_ostream"* @_ZNSolsEj(%"class.std::basic_ostream"*, i32) #1

; Function Attrs: noinline uwtable
define internal void @_GLOBAL__sub_I_1324.cpp() #0 section ".text.startup" {
  call void @__cxx_global_var_init()
  ret void
}


!llvm.module.flags = !{!0}
!llvm.ident = !{!1}

!0 = !{i32 1, !"wchar_size", i32 4}
!1 = !{!"clang version 10.0.0-4ubuntu1 "}
